; Function Attrs: mustprogress uwtable
define internal fastcc noundef zeroext i1 @_ZN3nixL10testAcceptEv() unnamed_addr #4 personality ptr @__gxx_personality_v0 {
  %1 = alloca %"class.std::optional.343", align 8
  %2 = alloca %"class.std::__cxx11::basic_string", align 8
  %3 = alloca %"class.std::allocator", align 1
  call void @_ZNSaIcEC1Ev(ptr noundef nonnull align 1 dereferenceable(1) %3) #25
  invoke void @_ZNSt7__cxx1112basic_stringIcSt11char_traitsIcESaIcEEC2IS3_EEPKcRKS3_(ptr noundef nonnull align 8 dereferenceable(32) %2, ptr noundef nonnull @.str.154, ptr noundef nonnull align 1 dereferenceable(1) %3)
          to label %4 unwind label %26

4:                                                ; preds = %0
  invoke void @_ZN3nix6getEnvERKNSt7__cxx1112basic_stringIcSt11char_traitsIcESaIcEEE(ptr dead_on_unwind nonnull writable sret(%"class.std::optional.343") align 8 %1, ptr noundef nonnull align 8 dereferenceable(32) %2)
          to label %5 unwind label %28

5:                                                ; preds = %4
  %6 = getelementptr inbounds i8, ptr %1, i64 32
  %7 = load i8, ptr %6, align 8
  %8 = and i8 %7, 1
  %.not.i = icmp eq i8 %8, 0
  br i1 %.not.i, label %_ZNSt8optionalINSt7__cxx1112basic_stringIcSt11char_traitsIcESaIcEEEED2Ev.exit, label %9

9:                                                ; preds = %5
  %10 = getelementptr inbounds i8, ptr %1, i64 8
  %11 = load i64, ptr %10, align 8
  %.not = icmp eq i64 %11, 0
  %.pre.pre = load ptr, ptr %1, align 8
  br i1 %.not, label %_ZNSt11char_traitsIcE7compareEPKcS2_m.exit.thread.i.i.i, label %_ZNSt11char_traitsIcE7compareEPKcS2_m.exit.i.i.i

_ZNSt11char_traitsIcE7compareEPKcS2_m.exit.i.i.i: ; preds = %9
  %lhsc = load i8, ptr %.pre.pre, align 1
  %.not.i.i.i = icmp eq i8 %lhsc, 49
  br i1 %.not.i.i.i, label %_ZNSt11char_traitsIcE7compareEPKcS2_m.exit.thread.i.i.i, label %15

_ZNSt11char_traitsIcE7compareEPKcS2_m.exit.thread.i.i.i: ; preds = %_ZNSt11char_traitsIcE7compareEPKcS2_m.exit.i.i.i, %9
  %12 = add i64 %11, -1
  %spec.select7.i.i.i.i = call i64 @llvm.smax.i64(i64 %12, i64 -2147483648)
  %.08.i.i.i.i = call i64 @llvm.smin.i64(i64 %spec.select7.i.i.i.i, i64 2147483647)
  %13 = and i64 %.08.i.i.i.i, 4294967295
  %14 = icmp eq i64 %13, 0
  br label %15

15:                                               ; preds = %_ZNSt11char_traitsIcE7compareEPKcS2_m.exit.thread.i.i.i, %_ZNSt11char_traitsIcE7compareEPKcS2_m.exit.i.i.i
  %.ph = phi i1 [ %14, %_ZNSt11char_traitsIcE7compareEPKcS2_m.exit.thread.i.i.i ], [ false, %_ZNSt11char_traitsIcE7compareEPKcS2_m.exit.i.i.i ]
  store i8 0, ptr %6, align 8
  %16 = getelementptr inbounds i8, ptr %1, i64 16
  %17 = icmp eq ptr %.pre.pre, %16
  br i1 %17, label %_ZNKSt7__cxx1112basic_stringIcSt11char_traitsIcESaIcEE11_M_is_localEv.exit.thread.i.i.i.i.i.i.i, label %_ZNKSt7__cxx1112basic_stringIcSt11char_traitsIcESaIcEE11_M_is_localEv.exit.i.i.i.i.i.i.i

_ZNKSt7__cxx1112basic_stringIcSt11char_traitsIcESaIcEE11_M_is_localEv.exit.thread.i.i.i.i.i.i.i: ; preds = %15
  %18 = icmp ult i64 %11, 16
  call void @llvm.assume(i1 %18)
  br label %_ZNSt22_Optional_payload_baseINSt7__cxx1112basic_stringIcSt11char_traitsIcESaIcEEEE10_M_destroyEv.exit.i.i.i.i

_ZNKSt7__cxx1112basic_stringIcSt11char_traitsIcESaIcEE11_M_is_localEv.exit.i.i.i.i.i.i.i: ; preds = %15
  call void @_ZdlPv(ptr noundef %.pre.pre) #28
  br label %_ZNSt22_Optional_payload_baseINSt7__cxx1112basic_stringIcSt11char_traitsIcESaIcEEEE10_M_destroyEv.exit.i.i.i.i

_ZNSt22_Optional_payload_baseINSt7__cxx1112basic_stringIcSt11char_traitsIcESaIcEEEE10_M_destroyEv.exit.i.i.i.i: ; preds = %_ZNKSt7__cxx1112basic_stringIcSt11char_traitsIcESaIcEE11_M_is_localEv.exit.i.i.i.i.i.i.i, %_ZNKSt7__cxx1112basic_stringIcSt11char_traitsIcESaIcEE11_M_is_localEv.exit.thread.i.i.i.i.i.i.i
  call void @_ZNSaIcED2Ev(ptr noundef nonnull align 1 dereferenceable(1) %1) #25
  br label %_ZNSt8optionalINSt7__cxx1112basic_stringIcSt11char_traitsIcESaIcEEEED2Ev.exit

_ZNSt8optionalINSt7__cxx1112basic_stringIcSt11char_traitsIcESaIcEEEED2Ev.exit: ; preds = %5, %_ZNSt22_Optional_payload_baseINSt7__cxx1112basic_stringIcSt11char_traitsIcESaIcEEEE10_M_destroyEv.exit.i.i.i.i
  %19 = phi i1 [ %.ph, %_ZNSt22_Optional_payload_baseINSt7__cxx1112basic_stringIcSt11char_traitsIcESaIcEEEE10_M_destroyEv.exit.i.i.i.i ], [ false, %5 ]
  %20 = load ptr, ptr %2, align 8
  %21 = getelementptr inbounds i8, ptr %2, i64 16
  %22 = icmp eq ptr %20, %21
  br i1 %22, label %_ZNKSt7__cxx1112basic_stringIcSt11char_traitsIcESaIcEE11_M_is_localEv.exit.thread.i.i, label %_ZNKSt7__cxx1112basic_stringIcSt11char_traitsIcESaIcEE11_M_is_localEv.exit.i.i

_ZNKSt7__cxx1112basic_stringIcSt11char_traitsIcESaIcEE11_M_is_localEv.exit.thread.i.i: ; preds = %_ZNSt8optionalINSt7__cxx1112basic_stringIcSt11char_traitsIcESaIcEEEED2Ev.exit
  %23 = getelementptr inbounds i8, ptr %2, i64 8
  %24 = load i64, ptr %23, align 8
  %25 = icmp ult i64 %24, 16
  call void @llvm.assume(i1 %25)
  br label %_ZNSt7__cxx1112basic_stringIcSt11char_traitsIcESaIcEED2Ev.exit

_ZNKSt7__cxx1112basic_stringIcSt11char_traitsIcESaIcEE11_M_is_localEv.exit.i.i: ; preds = %_ZNSt8optionalINSt7__cxx1112basic_stringIcSt11char_traitsIcESaIcEEEED2Ev.exit
  call void @_ZdlPv(ptr noundef %20) #28
  br label %_ZNSt7__cxx1112basic_stringIcSt11char_traitsIcESaIcEED2Ev.exit

_ZNSt7__cxx1112basic_stringIcSt11char_traitsIcESaIcEED2Ev.exit: ; preds = %_ZNKSt7__cxx1112basic_stringIcSt11char_traitsIcESaIcEE11_M_is_localEv.exit.thread.i.i, %_ZNKSt7__cxx1112basic_stringIcSt11char_traitsIcESaIcEE11_M_is_localEv.exit.i.i
  call void @_ZNSaIcED2Ev(ptr noundef nonnull align 1 dereferenceable(1) %2) #25
  call void @_ZNSaIcED1Ev(ptr noundef nonnull align 1 dereferenceable(1) %3) #25
  ret i1 %19

26:                                               ; preds = %0
  %27 = landingpad { ptr, i32 }
          cleanup
  br label %30

28:                                               ; preds = %4
  %29 = landingpad { ptr, i32 }
          cleanup
  call void @_ZNSt7__cxx1112basic_stringIcSt11char_traitsIcESaIcEED2Ev(ptr noundef nonnull align 8 dereferenceable(32) %2) #25
  br label %30

30:                                               ; preds = %28, %26
  %.pn.pn = phi { ptr, i32 } [ %29, %28 ], [ %27, %26 ]
  call void @_ZNSaIcED1Ev(ptr noundef nonnull align 1 dereferenceable(1) %3) #25
  resume { ptr, i32 } %.pn.pn
}